; Function Attrs: mustprogress uwtable
define hidden noundef nonnull align 8 dereferenceable(16) ptr @_ZN3nra6solver4tmp2Ev(ptr nocapture noundef nonnull readonly align 8 dereferenceable(8) %this) local_unnamed_addr #3 align 2 personality ptr @__gxx_personality_v0 {
entry:
  %0 = load ptr, ptr %this, align 8
  %m_tmp2.i = getelementptr inbounds i8, ptr %0, i64 96
  %1 = load ptr, ptr %m_tmp2.i, align 8
  %cmp.i.not.i = icmp eq ptr %1, null
  br i1 %cmp.i.not.i, label %if.then.i, label %_ZN3nra6solver3imp4tmp2Ev.exit

if.then.i:                                        ; preds = %entry
  %call2.i = tail call noalias noundef ptr @_ZN6memory8allocateEm(i64 noundef 16)
  %m_nlsat.i.i = getelementptr inbounds i8, ptr %0, i64 72
  %2 = load ptr, ptr %m_nlsat.i.i, align 8
  %call2.i.i = tail call noundef nonnull align 8 dereferenceable(17) ptr @_ZN5nlsat6solver2amEv(ptr noundef nonnull align 8 dereferenceable(16) %2)
  store ptr %call2.i.i, ptr %call2.i, align 8
  %m_num.i.i = getelementptr inbounds i8, ptr %call2.i, i64 8
  store ptr null, ptr %m_num.i.i, align 8
  %3 = load ptr, ptr %m_tmp2.i, align 8
  %cmp.not.i.i = icmp eq ptr %3, %call2.i
  br i1 %cmp.not.i.i, label %_ZN3nra6solver3imp4tmp2Ev.exit, label %if.then.i.i

if.then.i.i:                                      ; preds = %if.then.i
  %cmp.i.i.i = icmp eq ptr %3, null
  br i1 %cmp.i.i.i, label %_Z7deallocI15_scoped_numeralIN17algebraic_numbers7managerEEEvPT_.exit.i.i, label %if.end.i.i.i

if.end.i.i.i:                                     ; preds = %if.then.i.i
  %4 = load ptr, ptr %3, align 8
  %m_num.i.i.i.i = getelementptr inbounds i8, ptr %3, i64 8
  invoke void @_ZN17algebraic_numbers7manager3delERNS_4anumE(ptr noundef nonnull align 8 dereferenceable(17) %4, ptr noundef nonnull align 8 dereferenceable(8) %m_num.i.i.i.i)
          to label %_ZN15_scoped_numeralIN17algebraic_numbers7managerEED2Ev.exit.i.i.i unwind label %terminate.lpad.i.i.i.i

terminate.lpad.i.i.i.i:                           ; preds = %if.end.i.i.i
  %5 = landingpad { ptr, i32 }
          catch ptr null
  %6 = extractvalue { ptr, i32 } %5, 0
  tail call void @__clang_call_terminate(ptr %6) #18
  unreachable

_ZN15_scoped_numeralIN17algebraic_numbers7managerEED2Ev.exit.i.i.i: ; preds = %if.end.i.i.i
  tail call void @_ZN6memory10deallocateEPv(ptr noundef nonnull %3)
  br label %_Z7deallocI15_scoped_numeralIN17algebraic_numbers7managerEEEvPT_.exit.i.i

_Z7deallocI15_scoped_numeralIN17algebraic_numbers7managerEEEvPT_.exit.i.i: ; preds = %_ZN15_scoped_numeralIN17algebraic_numbers7managerEED2Ev.exit.i.i.i, %if.then.i.i
  store ptr %call2.i, ptr %m_tmp2.i, align 8
  br label %_ZN3nra6solver3imp4tmp2Ev.exit

_ZN3nra6solver3imp4tmp2Ev.exit:                   ; preds = %entry, %if.then.i, %_Z7deallocI15_scoped_numeralIN17algebraic_numbers7managerEEEvPT_.exit.i.i
  %7 = phi ptr [ %call2.i, %_Z7deallocI15_scoped_numeralIN17algebraic_numbers7managerEEEvPT_.exit.i.i ], [ %call2.i, %if.then.i ], [ %1, %entry ]
  ret ptr %7
}